Certificate:
    Data:
        Version: 3 (0x2)
        Serial Number: 1 (0x1)
    Signature Algorithm: sha256WithRSAEncryption
        Issuer: C=BR, ST=RJ, L=Rio, O=PUC, OU=INF1416, CN=AC INF1416/emailAddress=ca@grad.inf.puc-rio.br
        Validity
            Not Before: May  3 17:19:28 2019 GMT
            Not After : May  2 17:19:28 2022 GMT
        Subject: C=BR, ST=RJ, O=PUC, OU=INF1416, CN=Administrator/emailAddress=admin@inf1416.puc-rio.br
        Subject Public Key Info:
            Public Key Algorithm: rsaEncryption
                Public-Key: (2048 bit)
                Modulus:
                    00:c3:9e:ad:96:a5:38:a8:45:e3:50:dc:46:a9:c4:
                    27:66:52:df:64:86:c4:b6:04:77:ff:60:1e:ed:8c:
                    62:0b:0b:34:1e:82:75:75:b3:0b:dc:1f:ec:5f:77:
                    d1:54:8d:1e:e9:39:11:52:36:fa:df:58:ab:7d:de:
                    dd:e5:d8:37:34:90:2b:d5:7d:f8:79:05:29:d7:23:
                    0c:1b:5b:de:0e:f8:4d:58:a7:aa:6f:a7:27:e5:8f:
                    c6:08:f9:52:f2:d1:d3:42:8a:cc:c7:00:5e:6e:c7:
                    a9:51:65:87:2b:33:82:a2:26:77:6a:78:54:67:a9:
                    13:fc:cd:62:39:3b:59:09:24:c5:f3:0a:a2:17:c2:
                    65:ed:7e:a5:63:5a:2c:17:4e:78:d4:f7:bc:5f:42:
                    a2:a4:98:0b:7c:67:eb:b1:25:a4:31:75:92:41:73:
                    39:a8:fe:34:00:23:3d:60:c7:e4:97:03:84:ec:85:
                    4e:51:6b:8b:10:60:ba:39:f8:58:00:7c:0d:af:b3:
                    01:c6:5c:0e:9b:6b:73:79:db:0c:9d:67:62:18:50:
                    92:f6:fd:89:93:c9:fc:73:46:7b:32:ba:a6:cb:fa:
                    17:0e:c3:a6:e6:fa:0d:0e:10:82:02:ec:97:6e:2a:
                    98:a7:cf:70:62:7a:23:b5:e6:f6:a6:78:02:65:aa:
                    97:9d
                Exponent: 65537 (0x10001)
        X509v3 extensions:
            X509v3 Basic Constraints: 
                CA:FALSE
            Netscape Comment: 
                OpenSSL Generated Certificate
            X509v3 Subject Key Identifier: 
                9E:50:D9:AA:B8:2D:0E:07:10:CB:1A:95:1A:0C:DC:5E:D6:DD:84:00
            X509v3 Authority Key Identifier: 
                keyid:23:81:3B:C3:19:2B:95:99:D9:CA:EA:3B:6B:FE:1C:24:73:C2:82:8E

    Signature Algorithm: sha256WithRSAEncryption
         62:38:e2:d7:0b:3b:ed:cc:3c:b9:58:65:51:39:33:57:1c:80:
         69:42:8e:80:9c:76:ce:eb:e1:47:bf:4c:22:d1:fb:2f:ee:e8:
         70:3a:cc:07:fb:46:0a:0a:00:84:03:35:81:57:ae:c8:fd:ad:
         d2:3f:66:99:1b:ae:14:31:05:be:c1:6a:98:ea:12:0d:b2:c5:
         93:1a:f5:1b:c4:ad:ba:35:10:0e:b2:de:fb:af:75:a9:4e:51:
         36:e6:cf:dd:76:9c:47:23:d5:4c:0d:45:fe:94:ab:fd:75:26:
         e1:fc:a6:a8:36:72:55:cc:6a:60:f1:5e:c2:14:25:2f:75:5a:
         0f:66:ca:78:d5:84:01:cc:e0:90:e1:e4:0b:77:43:6f:d6:c2:
         2f:8a:03:af:54:ac:51:12:83:59:68:36:5d:b6:69:b9:33:bb:
         22:1c:53:60:ac:1d:74:ab:ec:25:38:e2:cc:72:33:ea:68:ba:
         25:ab:c7:33:bf:b1:b4:1f:d9:bd:06:96:d3:83:bd:cb:94:08:
         f4:44:0f:26:c1:77:9f:26:d5:34:a5:88:47:d5:00:e2:d5:92:
         7c:79:90:e4:9f:5c:1a:4f:db:64:10:aa:ce:f8:26:57:c5:af:
         ed:c3:14:07:ba:ba:9b:31:94:3f:56:be:1e:d3:66:4a:f4:16:
         f5:4a:30:de
-----BEGIN CERTIFICATE-----
MIID9jCCAt6gAwIBAgIBATANBgkqhkiG9w0BAQsFADCBhDELMAkGA1UEBhMCQlIx
CzAJBgNVBAgMAlJKMQwwCgYDVQQHDANSaW8xDDAKBgNVBAoMA1BVQzEQMA4GA1UE
CwwHSU5GMTQxNjETMBEGA1UEAwwKQUMgSU5GMTQxNjElMCMGCSqGSIb3DQEJARYW
Y2FAZ3JhZC5pbmYucHVjLXJpby5icjAeFw0xOTA1MDMxNzE5MjhaFw0yMjA1MDIx
NzE5MjhaMHsxCzAJBgNVBAYTAkJSMQswCQYDVQQIDAJSSjEMMAoGA1UECgwDUFVD
MRAwDgYDVQQLDAdJTkYxNDE2MRYwFAYDVQQDDA1BZG1pbmlzdHJhdG9yMScwJQYJ
KoZIhvcNAQkBFhhhZG1pbkBpbmYxNDE2LnB1Yy1yaW8uYnIwggEiMA0GCSqGSIb3
DQEBAQUAA4IBDwAwggEKAoIBAQDDnq2WpTioReNQ3EapxCdmUt9khsS2BHf/YB7t
jGILCzQegnV1swvcH+xfd9FUjR7pORFSNvrfWKt93t3l2Dc0kCvVffh5BSnXIwwb
W94O+E1Yp6pvpyflj8YI+VLy0dNCiszHAF5ux6lRZYcrM4KiJndqeFRnqRP8zWI5
O1kJJMXzCqIXwmXtfqVjWiwXTnjU97xfQqKkmAt8Z+uxJaQxdZJBczmo/jQAIz1g
x+SXA4TshU5Ra4sQYLo5+FgAfA2vswHGXA6ba3N52wydZ2IYUJL2/YmTyfxzRnsy
uqbL+hcOw6bm+g0OEIIC7JduKpinz3BieiO15vameAJlqpedAgMBAAGjezB5MAkG
A1UdEwQCMAAwLAYJYIZIAYb4QgENBB8WHU9wZW5TU0wgR2VuZXJhdGVkIENlcnRp
ZmljYXRlMB0GA1UdDgQWBBSeUNmquC0OBxDLGpUaDNxe1t2EADAfBgNVHSMEGDAW
gBQjgTvDGSuVmdnK6jtr/hwkc8KCjjANBgkqhkiG9w0BAQsFAAOCAQEAYjji1ws7
7cw8uVhlUTkzVxyAaUKOgJx2zuvhR79MItH7L+7ocDrMB/tGCgoAhAM1gVeuyP2t
0j9mmRuuFDEFvsFqmOoSDbLFkxr1G8StujUQDrLe+691qU5RNubP3XacRyPVTA1F
/pSr/XUm4fymqDZyVcxqYPFewhQlL3VaD2bKeNWEAczgkOHkC3dDb9bCL4oDr1Ss
URKDWWg2XbZpuTO7IhxTYKwddKvsJTjizHIz6mi6JavHM7+xtB/ZvQaW04O9y5QI
9EQPJsF3nybVNKWIR9UA4tWSfHmQ5J9cGk/bZBCqzvgmV8Wv7cMUB7q6mzGUP1a+
HtNmSvQW9Uow3g==
-----END CERTIFICATE-----
